; Function Attrs: mustprogress uwtable
define dso_local void @_ZN4i18n12phonenumbers12NumberFormatC2EPN6google8protobuf5ArenaE(ptr noundef nonnull align 8 dereferenceable(88) %0, ptr noundef %1) unnamed_addr #3 align 2 personality ptr @__gxx_personality_v0 {
  %3 = getelementptr inbounds i8, ptr %0, i64 8
  store ptr %1, ptr %3, align 8
  store ptr getelementptr inbounds ({ [16 x ptr] }, ptr @_ZTVN4i18n12phonenumbers12NumberFormatE, i64 0, i32 0, i64 2), ptr %0, align 8
  %4 = getelementptr inbounds i8, ptr %0, i64 16
  store i32 0, ptr %4, align 8
  %5 = getelementptr inbounds i8, ptr %0, i64 20
  store i32 0, ptr %5, align 4
  %6 = getelementptr inbounds i8, ptr %0, i64 24
  tail call void @_ZN6google8protobuf16RepeatedPtrFieldINSt7__cxx1112basic_stringIcSt11char_traitsIcESaIcEEEEC1EPNS0_5ArenaE(ptr noundef nonnull align 8 dereferenceable(24) %6, ptr noundef %1)
  %7 = load atomic i32, ptr @scc_info_NumberFormat_phonemetadata_2eproto acquire, align 8
  %.not.i.i = icmp eq i32 %7, 0
  br i1 %.not.i.i, label %9, label %8

8:                                                ; preds = %2
  invoke void @_ZN6google8protobuf8internal11InitSCCImplEPNS1_11SCCInfoBaseE(ptr noundef nonnull @scc_info_NumberFormat_phonemetadata_2eproto)
          to label %9 unwind label %15

9:                                                ; preds = %2, %8
  %10 = getelementptr inbounds i8, ptr %0, i64 48
  store ptr @_ZN6google8protobuf8internal26fixed_address_empty_stringB5cxx11E, ptr %10, align 8
  %11 = getelementptr inbounds i8, ptr %0, i64 56
  store ptr @_ZN6google8protobuf8internal26fixed_address_empty_stringB5cxx11E, ptr %11, align 8
  %12 = getelementptr inbounds i8, ptr %0, i64 64
  store ptr @_ZN6google8protobuf8internal26fixed_address_empty_stringB5cxx11E, ptr %12, align 8
  %13 = getelementptr inbounds i8, ptr %0, i64 72
  store ptr @_ZN6google8protobuf8internal26fixed_address_empty_stringB5cxx11E, ptr %13, align 8
  %14 = getelementptr inbounds i8, ptr %0, i64 80
  store i8 0, ptr %14, align 8
  ret void

15:                                               ; preds = %8
  %16 = landingpad { ptr, i32 }
          cleanup
  tail call void @_ZN6google8protobuf16RepeatedPtrFieldINSt7__cxx1112basic_stringIcSt11char_traitsIcESaIcEEEED1Ev(ptr noundef nonnull align 8 dereferenceable(24) %6) #21
  resume { ptr, i32 } %16
}